(dp0
S'FreezerTemp'
p1
(dp2
S'Current'
p3
S'-14.0'
p4
sS'TrendList'
p5
(lp6
F-10.5
aF-20.8
aF-13.0
aF-19.7
aF-21.2
aF-5.6
aF-6.2
aF-16.6
aF-14.6
aF-12.6
aF-14.9
aF-13.2
aF-14.9
aF-18.3
aF-7.8
aF-5.5
aF-20.4
aF-17.4
aF-7.6
aF-7.2
aF-21.1
aF-19.0
aF-21.5
aF-8.4
aF-5.1
aF-12.9
aF-16.4
aF-15.1
aF-10.1
aF-12.0
aF-12.5
aF-13.4
aF-14.4
aF-21.5
aF-11.0
aF-8.0
aF-16.2
aF-5.6
aF-8.2
aF-21.3
aF-7.4
aF-13.6
aF-14.0
aF-20.0
aF-11.7
aF-15.6
aF-5.9
aF-20.7
aF-15.7
aF-9.2
aF-19.6
aF-20.0
aF-12.9
aF-7.5
aF-6.8
aF-13.8
aF-6.3
aF-8.1
aF-13.8
aF-14.5
aF-11.5
aF-21.8
aF-19.9
aF-16.1
aF-13.9
aF-14.2
aF-16.0
aF-10.3
aF-10.3
aF-10.4
aF-15.4
aF-10.4
aF-8.6
aF-15.2
aF-17.1
aF-11.3
aF-11.1
aF-14.1
aF-9.1
aF-21.8
aF-15.2
aF-12.6
aF-5.9
aF-10.6
aF-20.8
aF-5.6
aF-15.4
aF-15.5
aF-12.1
aF-16.8
aF-7.7
aF-5.3
aF-7.6
aF-6.6
aF-20.0
aF-17.4
aF-17.7
aF-5.6
aF-12.5
aF-5.4
aF-10.3
aF-6.4
aF-8.3
aF-18.3
aF-21.4
aF-16.9
aF-13.2
aF-12.3
aF-17.5
aF-6.9
aF-16.6
aF-12.2
aF-6.3
aF-10.2
aF-17.5
aF-19.6
aF-7.6
aF-15.9
aF-15.0
aF-12.6
aF-8.5
aF-17.2
aF-22.0
aF-12.9
aF-8.5
aF-20.6
aF-15.0
aF-5.4
aF-19.6
aF-21.1
aF-15.4
aF-17.1
aF-7.4
aF-18.2
aF-11.0
aF-7.0
aF-15.0
aF-9.5
aF-13.2
aF-15.4
aF-7.0
aF-13.4
aF-7.7
aF-15.5
aF-10.3
aF-19.9
aF-19.1
aF-14.2
aF-7.2
aF-11.1
aF-15.5
aF-15.4
aF-14.5
aF-10.6
aF-21.3
aF-13.3
aF-10.9
aF-7.1
aF-20.1
aF-17.1
aF-21.8
aF-21.6
aF-17.7
aF-13.1
aF-18.1
aF-8.6
aF-21.4
aF-5.1
aF-6.9
aF-18.2
aF-12.3
aF-11.0
aF-16.9
aF-14.1
aF-5.7
aF-7.7
aF-17.5
aF-21.7
aF-6.6
aF-11.3
aF-11.3
aF-17.9
aF-7.8
aF-10.8
aF-19.6
aF-10.2
aF-15.4
aF-14.3
aF-15.7
aF-15.2
aF-16.5
aF-19.4
aF-20.7
aF-9.1
aF-14.1
aF-15.0
aF-18.6
aF-14.5
aF-18.9
aF-7.4
aF-7.4
aF-13.3
aF-10.6
aF-15.5
aF-8.8
aF-13.7
aF-13.2
aF-14.8
aF-21.9
aF-12.6
aF-13.7
aF-12.9
aF-18.1
aF-13.6
aF-20.7
aF-12.4
aF-21.4
aF-16.0
aF-15.0
aF-17.4
aF-7.6
aF-8.6
aF-8.9
aF-7.2
aF-13.3
aF-10.5
aF-9.7
aF-17.4
aF-13.4
aF-7.1
aF-9.8
aF-20.7
aF-14.0
aF-20.9
aF-14.2
aF-21.8
aF-5.7
aF-10.1
aF-18.4
aF-12.3
aF-13.6
aF-11.2
aF-21.6
aF-13.6
aF-6.9
aF-17.0
aF-9.1
aF-11.2
aF-17.2
aF-21.8
aF-5.6
aF-22.0
aF-6.4
aF-9.0
aF-17.9
aF-8.3
aF-19.7
aF-5.1
aF-7.5
aF-8.6
aF-17.1
aF-21.3
aF-21.5
aF-8.7
aF-6.6
aF-16.6
aF-16.9
aF-14.5
aF-7.0
aF-17.1
aF-13.7
aF-14.2
aF-12.1
aF-15.2
aF-10.8
aF-12.6
aF-16.3
aF-7.6
aF-7.4
aF-19.6
aF-12.8
aF-17.0
aF-8.4
aF-20.4
aF-10.2
aF-9.3
aF-17.8
aF-17.3
aF-20.6
aF-12.5
aF-10.1
aF-13.2
aF-12.8
aF-5.6
aF-9.7
aF-17.8
aF-10.4
aF-15.8
aF-21.6
aF-18.9
aF-5.5
aF-16.6
aF-5.3
aF-7.7
aF-7.2
aF-12.3
aF-8.7
aF-11.8
aF-6.0
aF-7.4
aF-12.6
aF-19.6
aF-9.0
aF-20.7
aF-21.7
aF-13.5
aF-13.2
aF-14.2
aF-21.9
aF-5.7
aF-20.6
aF-20.6
aF-16.3
aF-16.1
aF-20.2
aF-9.3
aF-19.7
aF-17.0
aF-14.8
aF-11.5
aF-14.4
aF-20.4
aF-7.9
aF-12.6
aF-10.3
aF-17.2
aF-15.7
aF-16.3
aF-21.1
aF-20.5
aF-7.8
aF-12.2
aF-16.8
aF-13.4
aF-13.8
aF-5.7
aF-6.0
aF-7.5
aF-12.7
aF-7.2
aF-12.5
aF-7.1
aF-12.0
aF-21.0
aF-13.2
aF-21.2
aF-13.1
aF-11.2
aF-8.3
aF-13.8
aF-9.9
aF-14.5
aF-21.5
aF-16.8
aF-10.0
aF-12.2
aF-15.2
aF-17.5
aF-13.8
aF-9.5
aF-8.8
aF-15.8
aF-6.4
aF-19.1
aF-17.0
aF-17.2
aF-5.9
aF-14.8
aF-16.5
aF-14.0
aF-16.0
aF-9.2
aF-17.6
aF-12.9
aF-12.2
aF-21.6
aF-8.0
aF-13.3
aF-18.0
aF-15.7
aF-5.5
aF-6.0
aF-18.9
aF-21.6
aF-21.3
aF-6.2
aF-19.2
aF-14.5
aF-17.7
aF-15.7
aF-21.8
aF-18.3
aF-19.4
aF-8.6
aF-8.1
aF-18.3
aF-16.5
aF-8.3
aF-7.8
aF-10.2
aF-17.1
aF-10.7
aF-6.2
aF-12.7
aF-8.5
aF-20.8
aF-13.6
aF-17.4
aF-9.5
aF-15.1
aF-14.6
aF-21.5
aF-15.5
aF-7.5
aF-17.7
aF-15.7
aF-10.9
aF-12.7
aF-21.7
aF-16.6
aF-6.8
aF-7.4
aF-18.0
aF-21.3
aF-10.4
aF-20.7
aF-7.6
aF-13.8
aF-20.2
aF-7.3
aF-8.1
aF-11.0
aF-10.6
aF-19.1
aF-20.8
aF-9.9
aF-20.6
aF-21.9
aF-15.2
aF-5.2
aF-8.8
aF-6.5
aF-7.9
aF-19.2
aF-19.5
aF-14.1
aF-19.7
aF-13.8
aF-12.5
aF-7.3
aF-18.0
aF-5.5
aF-5.9
aF-6.2
aF-12.9
aF-10.1
aF-11.9
aF-9.0
aF-21.9
aF-16.2
aF-9.8
aF-18.6
aF-5.7
aF-16.2
aF-21.9
aF-14.8
aF-19.8
aF-18.3
aF-9.0
aF-17.1
aF-7.5
aF-20.0
aF-7.1
aF-11.0
aF-15.5
aF-15.3
aF-14.1
aF-14.6
aF-13.7
aF-15.7
aF-17.0
aF-11.8
aF-22.0
aF-10.0
aF-10.9
aF-7.0
aF-11.1
aF-16.0
aF-16.9
aF-12.6
aF-11.3
aF-18.1
aF-11.1
aF-11.4
aF-18.9
aF-6.7
aF-12.1
aF-18.7
aF-5.1
aF-21.8
aF-15.4
aF-15.6
aF-21.5
aF-8.0
aF-14.9
aF-21.2
aF-5.3
aF-12.6
aF-12.5
aF-13.4
aF-7.1
aF-8.0
aF-6.9
aF-19.5
aF-19.3
aF-11.3
aF-7.2
aF-20.1
aF-12.1
aF-18.8
aF-11.0
aF-10.1
aF-20.9
aF-14.1
aF-15.8
aF-6.5
aF-7.7
aF-15.1
aF-20.2
aF-17.6
aF-10.1
aF-7.0
aF-21.1
aF-5.1
aF-8.6
aF-13.2
aF-15.7
aF-21.4
aF-18.4
aF-19.1
aF-12.2
aF-5.1
aF-19.0
aF-19.4
aF-7.8
aF-16.4
aF-7.5
aF-13.9
aF-5.9
aF-12.7
aF-13.9
aF-7.1
aF-11.3
aF-17.1
aF-14.7
aF-14.0
assS'OutdoorTemp'
p7
(dp8
g3
S'-10.9'
p9
sg5
(lp10
F-15.8
aF-18.8
aF21.6
aF-15.7
aF-0.3
aF-2.9
aF23.1
aF22.8
aF21.7
aF9.6
aF4.5
aF5.1
aF-1.8
aF-5.7
aF-12.3
aF24.1
aF11.4
aF-4.5
aF-7.0
aF-3.5
aF17.9
aF14.1
aF14.8
aF-2.4
aF-8.2
aF9.5
aF-11.8
aF-3.5
aF12.0
aF24.2
aF-12.2
aF-3.6
aF7.9
aF-0.4
aF-7.7
aF-13.1
aF-10.4
aF20.4
aF-3.9
aF-2.9
aF22.7
aF11.3
aF7.5
aF20.7
aF-1.2
aF14.6
aF8.9
aF14.7
aF-4.9
aF3.0
aF5.8
aF-9.8
aF-7.7
aF-5.0
aF-4.8
aF-0.1
aF3.1
aF-17.4
aF8.2
aF20.1
aF-4.7
aF8.7
aF13.1
aF-0.6
aF6.1
aF9.9
aF-0.2
aF-3.8
aF11.7
aF-18.7
aF1.2
aF-4.4
aF-6.7
aF21.0
aF-1.0
aF-6.1
aF6.9
aF15.3
aF-0.9
aF-18.8
aF19.3
aF21.6
aF-14.8
aF1.8
aF-2.6
aF13.5
aF2.5
aF13.3
aF-10.3
aF14.0
aF0.5
aF-18.0
aF-5.0
aF1.1
aF-11.9
aF24.7
aF3.5
aF9.8
aF15.9
aF24.2
aF21.5
aF-9.1
aF-15.2
aF8.4
aF3.3
aF9.7
aF-17.6
aF-1.8
aF4.4
aF18.0
aF-1.3
aF5.9
aF4.1
aF9.8
aF17.4
aF17.7
aF16.3
aF-11.6
aF16.9
aF20.2
aF-6.8
aF3.9
aF-16.4
aF-10.3
aF5.3
aF16.7
aF12.1
aF-9.2
aF15.8
aF5.5
aF-13.1
aF-1.2
aF-5.8
aF7.1
aF-8.1
aF16.6
aF3.4
aF20.2
aF8.8
aF9.5
aF17.9
aF-16.8
aF-13.8
aF3.5
aF-13.1
aF7.7
aF4.8
aF9.0
aF21.9
aF1.5
aF24.2
aF-8.1
aF3.1
aF1.7
aF-4.5
aF23.4
aF-1.2
aF-0.4
aF18.7
aF13.5
aF11.2
aF6.2
aF-1.9
aF2.1
aF-10.2
aF-10.3
aF11.8
aF-14.8
aF24.5
aF-19.2
aF4.6
aF18.4
aF-6.3
aF11.8
aF-13.0
aF19.9
aF18.6
aF3.0
aF-4.7
aF-15.4
aF-19.7
aF-13.5
aF-15.9
aF0.5
aF18.0
aF-18.5
aF5.7
aF-1.1
aF18.3
aF17.2
aF14.3
aF-1.4
aF15.8
aF-1.6
aF9.3
aF-7.3
aF21.2
aF15.4
aF-17.9
aF5.1
aF-11.5
aF-0.6
aF-6.0
aF0.9
aF22.4
aF-11.2
aF14.9
aF-14.8
aF23.7
aF-11.7
aF17.2
aF-12.4
aF5.2
aF22.7
aF-19.1
aF7.3
aF-4.1
aF1.3
aF18.4
aF-7.7
aF2.7
aF-9.0
aF18.8
aF-0.8
aF-3.1
aF24.1
aF-19.4
aF19.8
aF-7.9
aF17.1
aF-17.2
aF-19.0
aF11.9
aF-4.6
aF6.8
aF-15.4
aF11.6
aF12.6
aF20.6
aF-10.3
aF-7.3
aF-2.3
aF-18.0
aF20.0
aF-13.7
aF-5.7
aF-13.8
aF-14.6
aF-0.6
aF-11.7
aF12.6
aF8.2
aF23.4
aF15.8
aF7.3
aF2.1
aF-7.6
aF-3.4
aF-13.6
aF-16.9
aF17.2
aF-3.6
aF6.2
aF12.5
aF-1.5
aF-10.0
aF22.2
aF13.7
aF23.3
aF-5.7
aF-17.6
aF-19.0
aF5.1
aF18.8
aF-5.6
aF-2.1
aF12.8
aF-11.1
aF-18.6
aF-17.7
aF8.6
aF-2.6
aF-10.3
aF23.2
aF2.3
aF14.4
aF-15.1
aF-20.0
aF-14.6
aF-17.9
aF16.7
aF-6.4
aF23.9
aF-9.9
aF-5.5
aF-7.6
aF-5.5
aF6.0
aF-10.7
aF24.0
aF19.5
aF21.8
aF13.6
aF6.6
aF20.0
aF-10.0
aF-15.3
aF-4.6
aF-1.3
aF-11.3
aF1.3
aF23.2
aF6.1
aF8.2
aF-14.4
aF20.6
aF-17.0
aF5.5
aF3.6
aF0.7
aF20.9
aF13.4
aF-13.9
aF12.0
aF-16.3
aF-14.2
aF17.1
aF-6.5
aF1.8
aF21.3
aF-19.2
aF-4.0
aF-14.1
aF-16.7
aF9.3
aF-4.1
aF20.0
aF-7.2
aF-10.1
aF20.4
aF-5.9
aF-1.2
aF-12.3
aF12.4
aF20.1
aF4.5
aF-15.6
aF-7.7
aF23.0
aF-3.0
aF23.3
aF21.3
aF15.1
aF16.6
aF-16.4
aF18.5
aF-11.1
aF-6.4
aF-3.6
aF7.4
aF-2.5
aF-0.8
aF4.3
aF2.1
aF-3.3
aF14.4
aF-10.4
aF21.5
aF18.8
aF5.3
aF22.0
aF1.6
aF-0.5
aF-4.4
aF12.1
aF12.8
aF-19.7
aF12.3
aF-13.3
aF18.5
aF-17.4
aF5.8
aF22.1
aF18.5
aF9.3
aF-1.4
aF23.2
aF-19.6
aF-7.0
aF1.7
aF0.2
aF5.3
aF-3.9
aF-4.7
aF14.9
aF6.4
aF19.9
aF10.7
aF8.7
aF4.1
aF22.6
aF23.0
aF10.3
aF7.5
aF-14.8
aF22.6
aF-17.4
aF-18.6
aF-1.6
aF-5.1
aF-7.3
aF11.2
aF16.1
aF15.1
aF-15.9
aF19.3
aF11.0
aF14.6
aF2.6
aF16.6
aF-6.2
aF-2.6
aF5.8
aF-13.8
aF23.7
aF-15.7
aF-6.3
aF0.6
aF-18.0
aF21.2
aF-5.3
aF2.4
aF24.3
aF23.3
aF13.9
aF6.0
aF-1.5
aF13.8
aF-0.6
aF9.6
aF22.9
aF1.3
aF19.5
aF-11.7
aF-5.6
aF-2.8
aF0.9
aF-18.2
aF-0.8
aF15.8
aF-4.9
aF2.4
aF-0.6
aF-1.8
aF4.0
aF22.9
aF8.3
aF6.8
aF23.2
aF-4.4
aF5.3
aF-3.9
aF-17.2
aF0.8
aF11.1
aF-15.9
aF14.6
aF-1.9
aF14.1
aF11.0
aF12.2
aF-1.4
aF13.7
aF17.1
aF5.8
aF-16.1
aF15.5
aF2.5
aF3.9
aF14.0
aF-2.3
aF-14.9
aF6.0
aF10.0
aF22.4
aF-7.6
aF22.1
aF0.1
aF3.3
aF-14.7
aF1.1
aF-18.2
aF-5.5
aF-5.8
aF12.1
aF-13.2
aF4.2
aF-13.1
aF7.3
aF-2.9
aF-10.3
aF8.1
aF-8.9
aF-8.0
aF-1.1
aF-18.4
aF-15.5
aF-18.7
aF-2.7
aF-2.6
aF8.2
aF-12.8
aF18.2
aF15.6
aF-13.4
aF19.7
aF-9.8
aF-17.6
aF21.2
aF-7.9
aF-0.2
aF-8.2
aF-13.9
aF-18.0
aF17.2
aF15.7
aF23.7
aF8.6
aF-12.1
aF-6.1
aF-11.8
aF-18.2
aF-0.2
aF-4.7
aF0.1
aF14.4
aF20.8
aF9.5
aF2.6
aF15.0
aF23.8
aF-18.8
aF10.2
aF-7.3
aF17.2
aF-8.8
aF9.8
aF-12.6
aF-20.0
aF23.3
aF-8.6
aF1.6
aF-9.7
aF-19.5
aF0.4
aF11.5
aF7.0
aF-14.9
aF-10.2
aF15.8
aF2.7
aF11.8
aF-2.2
aF-9.5
aF12.7
aF-10.9
assS'OutdoorHum'
p11
(dp12
g3
S'51.8'
p13
sg5
(lp14
F68.7
aF43.6
aF79.4
aF29.0
aF27.8
aF46.8
aF70.8
aF41.8
aF54.4
aF67.0
aF35.5
aF61.0
aF89.1
aF45.8
aF35.2
aF16.1
aF10.0
aF87.5
aF28.0
aF88.3
aF83.9
aF43.3
aF80.8
aF76.0
aF13.2
aF50.8
aF49.8
aF18.8
aF70.3
aF38.9
aF18.0
aF26.5
aF25.8
aF52.5
aF50.0
aF87.8
aF72.9
aF27.0
aF40.2
aF80.8
aF83.1
aF72.2
aF83.5
aF35.7
aF42.7
aF16.1
aF66.1
aF51.2
aF60.6
aF65.4
aF74.5
aF71.6
aF52.3
aF12.3
aF56.4
aF62.4
aF46.7
aF52.6
aF60.9
aF40.4
aF86.9
aF18.8
aF69.8
aF34.1
aF66.0
aF49.2
aF10.2
aF26.5
aF18.5
aF32.6
aF56.7
aF57.8
aF18.4
aF46.8
aF13.2
aF76.0
aF18.4
aF27.2
aF25.6
aF49.5
aF28.8
aF37.4
aF82.0
aF21.1
aF60.1
aF16.1
aF67.4
aF74.7
aF72.6
aF27.2
aF60.5
aF37.8
aF62.7
aF60.9
aF62.3
aF47.2
aF36.3
aF60.4
aF84.0
aF80.9
aF18.5
aF60.8
aF25.7
aF54.0
aF15.8
aF56.0
aF56.0
aF80.8
aF68.0
aF42.5
aF19.0
aF28.2
aF30.6
aF35.6
aF30.6
aF80.3
aF59.9
aF84.5
aF81.8
aF57.8
aF39.7
aF71.1
aF42.6
aF26.4
aF61.6
aF70.8
aF32.3
aF17.2
aF54.2
aF48.2
aF30.9
aF66.4
aF46.1
aF85.1
aF43.2
aF14.9
aF17.7
aF82.0
aF41.8
aF10.1
aF87.1
aF57.2
aF35.1
aF15.9
aF73.2
aF10.5
aF15.2
aF21.8
aF56.4
aF57.2
aF60.4
aF67.5
aF41.0
aF26.4
aF36.2
aF43.6
aF13.0
aF74.9
aF27.1
aF54.5
aF82.5
aF47.5
aF11.8
aF25.4
aF19.0
aF22.3
aF29.4
aF89.2
aF54.0
aF60.8
aF62.9
aF59.9
aF65.6
aF36.8
aF24.8
aF89.4
aF76.4
aF29.8
aF86.4
aF48.8
aF55.4
aF66.1
aF81.7
aF89.7
aF34.2
aF83.9
aF75.9
aF81.1
aF82.8
aF52.5
aF56.3
aF88.1
aF17.0
aF23.3
aF32.3
aF45.4
aF81.9
aF76.1
aF83.3
aF88.1
aF14.8
aF12.4
aF37.0
aF38.2
aF31.6
aF75.1
aF79.4
aF89.1
aF60.0
aF23.3
aF77.1
aF86.9
aF15.5
aF71.9
aF35.6
aF51.3
aF32.5
aF31.0
aF61.1
aF21.4
aF32.6
aF43.8
aF41.3
aF81.0
aF40.3
aF87.0
aF46.2
aF87.2
aF55.6
aF32.5
aF30.0
aF59.3
aF78.7
aF37.3
aF24.3
aF19.3
aF38.6
aF76.6
aF16.6
aF87.3
aF89.1
aF61.6
aF61.6
aF88.8
aF65.2
aF65.1
aF47.7
aF65.9
aF69.6
aF15.7
aF65.0
aF70.6
aF71.9
aF90.0
aF66.3
aF29.1
aF31.0
aF65.3
aF39.0
aF81.7
aF68.6
aF37.3
aF77.1
aF78.1
aF40.6
aF70.8
aF74.2
aF19.1
aF46.0
aF13.1
aF68.9
aF57.2
aF80.4
aF45.3
aF79.6
aF83.3
aF14.9
aF30.1
aF86.7
aF15.3
aF38.4
aF80.6
aF44.5
aF83.0
aF53.5
aF29.4
aF17.6
aF40.5
aF33.4
aF65.3
aF25.0
aF36.9
aF79.8
aF67.1
aF78.5
aF29.1
aF80.5
aF21.4
aF58.5
aF82.0
aF10.8
aF77.8
aF38.0
aF78.7
aF16.1
aF48.6
aF84.2
aF79.2
aF50.6
aF32.0
aF75.2
aF87.3
aF38.3
aF32.1
aF24.3
aF46.8
aF23.3
aF20.7
aF39.7
aF84.4
aF54.5
aF15.8
aF63.9
aF38.8
aF51.6
aF23.9
aF57.9
aF36.8
aF58.8
aF50.6
aF71.8
aF56.5
aF29.5
aF68.4
aF50.1
aF30.0
aF46.7
aF84.2
aF59.7
aF21.0
aF24.1
aF53.0
aF47.6
aF83.6
aF71.1
aF44.7
aF32.7
aF63.0
aF65.1
aF16.4
aF87.0
aF71.7
aF56.6
aF14.6
aF66.3
aF48.5
aF89.9
aF28.7
aF77.0
aF30.5
aF89.6
aF19.8
aF60.9
aF88.9
aF59.8
aF44.2
aF53.4
aF35.8
aF24.9
aF51.1
aF53.4
aF53.0
aF14.2
aF47.4
aF77.1
aF55.3
aF67.3
aF74.7
aF40.2
aF50.8
aF17.1
aF16.3
aF35.1
aF89.2
aF66.6
aF33.8
aF35.7
aF32.5
aF38.4
aF86.2
aF62.7
aF68.6
aF26.1
aF47.5
aF37.9
aF14.7
aF10.2
aF20.2
aF52.0
aF16.8
aF17.7
aF34.6
aF69.8
aF49.4
aF77.4
aF31.5
aF66.3
aF65.1
aF77.2
aF18.4
aF50.1
aF29.1
aF53.7
aF77.6
aF23.7
aF85.6
aF89.3
aF22.3
aF60.5
aF32.8
aF60.8
aF29.7
aF74.5
aF31.6
aF21.0
aF44.7
aF79.3
aF60.7
aF28.9
aF53.5
aF24.3
aF30.7
aF45.0
aF76.0
aF84.0
aF59.2
aF59.7
aF40.1
aF12.2
aF13.4
aF16.9
aF82.0
aF73.9
aF46.1
aF61.5
aF66.2
aF69.9
aF20.0
aF54.0
aF57.7
aF54.4
aF63.3
aF49.4
aF11.4
aF26.9
aF46.5
aF35.7
aF14.4
aF20.7
aF16.5
aF34.2
aF64.5
aF23.9
aF83.7
aF59.5
aF67.3
aF40.5
aF36.2
aF57.8
aF28.9
aF10.9
aF26.8
aF75.2
aF18.2
aF16.7
aF44.5
aF63.4
aF86.6
aF55.7
aF52.6
aF21.5
aF48.1
aF41.1
aF37.5
aF53.9
aF86.7
aF18.4
aF52.6
aF76.7
aF81.6
aF32.6
aF42.2
aF59.6
aF19.7
aF69.1
aF19.3
aF21.1
aF17.7
aF89.3
aF87.4
aF12.3
aF22.1
aF51.2
aF18.9
aF40.9
aF57.9
aF88.6
aF48.0
aF61.5
aF84.6
aF46.5
aF88.7
aF63.7
aF51.4
aF19.4
aF11.4
aF53.3
aF12.9
aF47.8
aF50.2
aF41.3
aF42.9
aF77.1
aF55.1
aF78.3
aF70.1
aF82.3
aF45.7
aF78.0
aF72.7
aF55.8
aF71.9
aF78.1
aF45.0
aF17.6
aF38.8
aF69.8
aF33.0
aF83.9
aF61.6
aF69.8
aF85.4
aF28.2
aF38.1
aF83.9
aF47.7
aF32.8
aF43.8
aF76.8
aF17.9
aF27.4
aF29.2
aF69.3
aF73.3
aF61.6
aF33.6
aF45.1
aF79.7
aF46.1
aF47.1
aF30.4
aF24.7
aF70.4
aF73.8
aF57.5
aF51.8
assS'IndoorHum'
p15
(dp16
g3
S'41.7'
p17
sg5
(lp18
F51.1
aF64.7
aF68.0
aF44.1
aF26.2
aF22.9
aF20.7
aF14.0
aF49.4
aF48.7
aF28.3
aF26.2
aF32.1
aF68.1
aF54.9
aF55.5
aF41.4
aF84.4
aF73.4
aF16.4
aF81.2
aF17.1
aF32.1
aF12.4
aF85.4
aF41.8
aF20.2
aF22.4
aF29.4
aF71.6
aF50.4
aF20.7
aF45.1
aF16.8
aF55.6
aF28.4
aF43.8
aF88.8
aF71.4
aF29.7
aF70.8
aF34.1
aF28.3
aF85.3
aF30.5
aF64.0
aF31.0
aF70.4
aF71.5
aF28.1
aF35.7
aF12.4
aF64.3
aF28.7
aF76.8
aF30.5
aF83.0
aF75.5
aF66.2
aF64.9
aF54.7
aF86.2
aF70.6
aF43.8
aF84.6
aF38.0
aF45.6
aF48.9
aF75.1
aF76.5
aF78.2
aF79.6
aF76.1
aF10.3
aF80.7
aF26.1
aF66.1
aF78.6
aF70.7
aF49.5
aF38.6
aF40.3
aF68.6
aF83.1
aF47.4
aF31.0
aF57.4
aF43.3
aF58.5
aF64.2
aF44.6
aF34.5
aF49.9
aF58.0
aF50.7
aF53.3
aF29.0
aF62.8
aF37.8
aF40.7
aF88.1
aF32.4
aF14.8
aF26.1
aF88.4
aF83.4
aF50.1
aF42.6
aF14.4
aF47.7
aF68.5
aF50.3
aF62.0
aF82.1
aF39.4
aF74.2
aF25.6
aF22.9
aF60.7
aF39.6
aF17.2
aF40.6
aF54.5
aF39.4
aF50.3
aF27.8
aF88.0
aF30.2
aF59.9
aF37.0
aF62.3
aF71.5
aF28.6
aF78.6
aF74.5
aF29.3
aF10.4
aF28.4
aF70.2
aF85.3
aF21.2
aF19.8
aF69.5
aF82.1
aF33.0
aF54.5
aF43.2
aF83.4
aF29.3
aF89.9
aF69.6
aF72.7
aF89.8
aF47.8
aF20.2
aF28.9
aF37.8
aF27.2
aF42.5
aF27.2
aF58.2
aF55.1
aF54.6
aF12.5
aF76.8
aF66.2
aF81.5
aF73.8
aF40.0
aF55.9
aF35.3
aF48.5
aF38.1
aF18.9
aF10.7
aF53.8
aF17.8
aF73.9
aF26.2
aF80.4
aF53.4
aF22.5
aF26.5
aF13.8
aF29.9
aF41.3
aF45.2
aF20.1
aF32.8
aF62.8
aF43.5
aF88.4
aF27.5
aF31.6
aF62.9
aF46.1
aF23.8
aF15.0
aF39.6
aF82.6
aF71.2
aF24.5
aF58.4
aF72.1
aF41.8
aF44.4
aF66.2
aF80.4
aF58.3
aF40.9
aF43.1
aF54.4
aF63.7
aF24.5
aF37.3
aF51.7
aF17.6
aF64.8
aF17.9
aF20.7
aF15.9
aF34.3
aF70.8
aF19.2
aF88.2
aF34.0
aF75.8
aF79.4
aF48.5
aF56.9
aF74.0
aF57.1
aF70.7
aF32.2
aF69.3
aF78.6
aF65.9
aF48.6
aF81.2
aF53.9
aF31.8
aF89.8
aF61.3
aF88.9
aF44.3
aF70.3
aF28.8
aF58.6
aF23.6
aF44.8
aF65.2
aF71.3
aF32.8
aF36.5
aF38.7
aF78.7
aF19.4
aF50.5
aF76.8
aF49.8
aF64.5
aF39.9
aF49.1
aF89.3
aF73.9
aF72.4
aF18.8
aF67.3
aF24.2
aF86.4
aF82.8
aF26.4
aF57.7
aF48.1
aF44.7
aF57.2
aF42.7
aF75.7
aF35.8
aF88.3
aF69.7
aF47.3
aF56.0
aF52.6
aF81.7
aF26.7
aF77.0
aF38.6
aF36.6
aF80.2
aF32.0
aF64.0
aF16.4
aF36.2
aF10.0
aF37.0
aF56.5
aF68.2
aF86.8
aF77.8
aF23.6
aF77.3
aF73.1
aF89.0
aF29.1
aF77.5
aF50.9
aF89.4
aF87.2
aF37.7
aF11.5
aF26.6
aF36.9
aF17.7
aF32.0
aF18.2
aF85.1
aF48.6
aF54.4
aF29.3
aF16.5
aF60.8
aF24.4
aF59.6
aF43.8
aF37.2
aF25.2
aF19.2
aF16.2
aF58.7
aF52.6
aF37.0
aF23.5
aF49.5
aF27.0
aF49.4
aF38.1
aF21.2
aF88.8
aF73.9
aF72.3
aF18.2
aF10.7
aF72.8
aF14.7
aF84.2
aF35.8
aF42.6
aF56.0
aF37.8
aF86.9
aF30.7
aF79.5
aF65.8
aF81.9
aF77.5
aF14.4
aF57.7
aF85.4
aF52.8
aF47.4
aF80.3
aF40.7
aF49.8
aF39.4
aF77.2
aF45.2
aF10.3
aF39.1
aF13.0
aF76.1
aF25.3
aF54.5
aF78.5
aF58.5
aF53.1
aF23.3
aF64.7
aF40.3
aF27.7
aF49.7
aF73.7
aF43.5
aF79.2
aF30.7
aF89.4
aF85.4
aF61.4
aF40.5
aF21.5
aF82.9
aF16.1
aF31.5
aF18.0
aF27.1
aF72.1
aF80.2
aF68.2
aF88.9
aF31.6
aF84.7
aF62.5
aF56.7
aF31.5
aF46.3
aF16.4
aF63.3
aF30.0
aF76.2
aF48.0
aF75.6
aF79.9
aF80.7
aF81.3
aF56.8
aF46.3
aF30.7
aF41.7
aF15.2
aF25.2
aF28.9
aF20.1
aF16.5
aF43.7
aF12.1
aF17.8
aF17.3
aF17.2
aF24.7
aF46.0
aF31.8
aF54.1
aF36.7
aF53.5
aF13.7
aF79.1
aF77.2
aF82.5
aF32.1
aF27.6
aF71.5
aF28.3
aF33.5
aF44.9
aF37.7
aF50.6
aF34.8
aF82.5
aF14.9
aF36.4
aF38.4
aF38.1
aF38.9
aF61.7
aF19.9
aF58.0
aF45.0
aF50.9
aF13.3
aF64.7
aF57.1
aF67.5
aF36.6
aF27.5
aF68.4
aF26.5
aF71.3
aF70.4
aF42.8
aF23.2
aF71.3
aF34.0
aF17.6
aF54.0
aF26.8
aF81.2
aF57.0
aF12.0
aF20.5
aF59.1
aF72.7
aF38.1
aF59.0
aF64.0
aF26.3
aF54.5
aF57.2
aF19.9
aF74.7
aF54.4
aF67.7
aF14.1
aF53.4
aF22.9
aF74.7
aF33.6
aF83.1
aF15.7
aF63.7
aF21.5
aF60.0
aF62.9
aF78.7
aF16.9
aF89.6
aF23.2
aF25.5
aF30.1
aF61.1
aF84.2
aF43.1
aF17.0
aF18.9
aF50.6
aF51.0
aF37.0
aF71.3
aF72.2
aF80.7
aF47.0
aF73.0
aF57.0
aF26.6
aF58.1
aF81.8
aF11.0
aF45.0
aF13.0
aF45.4
aF70.6
aF40.3
aF52.3
aF78.0
aF39.8
aF10.9
aF25.7
aF63.9
aF77.5
aF69.6
aF76.9
aF61.5
aF48.6
aF17.1
aF57.3
aF85.4
aF22.6
aF42.2
aF71.3
aF57.3
aF42.9
aF23.9
aF57.9
aF86.2
aF28.2
aF14.6
aF84.4
aF53.3
aF42.6
aF52.3
aF66.3
aF53.3
aF75.8
aF64.1
aF88.4
aF21.0
aF41.7
assS'FridgeTempUpper'
p19
(dp20
g3
S'8.6'
p21
sg5
(lp22
F6.5
aF5.6
aF9.3
aF6.5
aF6.9
aF5.3
aF7.4
aF8.7
aF5.3
aF7.8
aF9.4
aF8.5
aF7.4
aF7.5
aF6.0
aF9.9
aF5.3
aF8.5
aF8.6
aF8.5
aF8.6
aF7.8
aF8.0
aF5.1
aF5.2
aF7.2
aF8.0
aF8.6
aF9.0
aF9.9
aF8.6
aF7.0
aF8.5
aF6.2
aF8.6
aF7.3
aF6.9
aF7.3
aF6.6
aF7.8
aF7.6
aF6.7
aF10.0
aF6.9
aF9.7
aF9.1
aF8.9
aF8.2
aF6.2
aF5.1
aF8.4
aF8.9
aF9.7
aF7.9
aF6.5
aF5.4
aF6.2
aF6.3
aF9.7
aF8.6
aF7.5
aF6.2
aF6.1
aF7.8
aF9.2
aF8.1
aF8.8
aF6.0
aF5.9
aF8.6
aF6.9
aF7.2
aF5.7
aF6.8
aF8.6
aF5.4
aF5.6
aF9.8
aF8.9
aF7.1
aF5.2
aF6.7
aF6.5
aF7.8
aF9.6
aF7.4
aF6.4
aF6.7
aF7.9
aF9.6
aF9.5
aF5.1
aF6.8
aF7.3
aF7.8
aF7.8
aF5.9
aF5.8
aF6.7
aF7.2
aF6.7
aF9.1
aF5.1
aF9.3
aF7.2
aF6.2
aF8.7
aF9.5
aF6.8
aF7.4
aF5.0
aF7.6
aF7.9
aF5.5
aF9.3
aF5.0
aF5.0
aF6.3
aF6.7
aF9.2
aF8.5
aF7.6
aF5.1
aF6.4
aF8.0
aF6.3
aF9.2
aF7.2
aF5.6
aF7.9
aF7.2
aF6.6
aF7.5
aF9.9
aF6.0
aF6.2
aF8.2
aF7.3
aF8.5
aF7.6
aF7.7
aF8.8
aF7.1
aF5.0
aF9.2
aF10.0
aF9.2
aF6.6
aF5.1
aF7.3
aF5.6
aF5.6
aF5.6
aF6.8
aF7.7
aF9.1
aF8.2
aF5.5
aF7.7
aF9.9
aF8.6
aF8.4
aF7.1
aF6.1
aF7.9
aF7.7
aF6.8
aF6.6
aF5.3
aF8.9
aF9.1
aF6.4
aF8.2
aF6.5
aF5.6
aF5.4
aF6.3
aF7.9
aF5.8
aF5.8
aF6.6
aF7.0
aF9.9
aF5.9
aF9.0
aF8.9
aF6.3
aF5.7
aF5.7
aF5.4
aF5.8
aF5.5
aF6.5
aF7.8
aF5.7
aF5.1
aF5.2
aF10.0
aF5.0
aF9.2
aF7.1
aF7.7
aF5.8
aF8.3
aF8.5
aF8.8
aF9.1
aF5.9
aF6.8
aF5.0
aF8.5
aF5.5
aF9.5
aF9.3
aF6.3
aF9.2
aF6.3
aF6.3
aF8.2
aF6.6
aF8.9
aF7.9
aF7.7
aF7.8
aF9.1
aF6.8
aF6.7
aF9.5
aF9.2
aF8.0
aF10.0
aF6.4
aF5.9
aF6.4
aF7.6
aF8.9
aF9.7
aF7.6
aF6.2
aF7.5
aF8.8
aF8.9
aF7.6
aF6.1
aF6.0
aF8.9
aF5.5
aF5.1
aF9.3
aF5.3
aF6.5
aF7.4
aF9.5
aF7.4
aF9.5
aF5.2
aF5.5
aF6.5
aF9.8
aF6.3
aF9.8
aF9.2
aF7.9
aF6.3
aF5.5
aF10.0
aF9.3
aF8.1
aF5.2
aF5.5
aF5.9
aF8.4
aF6.1
aF8.4
aF6.8
aF6.2
aF7.1
aF8.6
aF5.8
aF7.0
aF5.4
aF8.6
aF6.5
aF8.9
aF8.2
aF5.8
aF8.8
aF8.2
aF9.0
aF8.9
aF7.1
aF5.5
aF5.2
aF9.6
aF6.6
aF7.7
aF9.0
aF5.2
aF7.5
aF5.5
aF8.7
aF5.5
aF9.8
aF7.2
aF5.5
aF7.5
aF7.2
aF5.8
aF8.7
aF5.3
aF7.0
aF6.9
aF9.9
aF7.2
aF7.9
aF6.5
aF8.2
aF5.3
aF5.9
aF6.8
aF6.6
aF5.8
aF6.2
aF6.2
aF7.2
aF8.8
aF7.0
aF7.0
aF8.6
aF8.0
aF5.3
aF8.1
aF9.1
aF7.6
aF7.7
aF9.6
aF9.3
aF7.7
aF5.9
aF8.4
aF6.9
aF8.8
aF9.2
aF5.2
aF7.1
aF6.2
aF5.8
aF6.5
aF7.3
aF9.0
aF8.2
aF8.6
aF9.3
aF8.1
aF5.3
aF8.0
aF9.9
aF7.6
aF7.1
aF8.9
aF7.1
aF8.7
aF8.6
aF8.9
aF5.8
aF6.9
aF7.6
aF7.9
aF6.3
aF6.6
aF7.1
aF8.1
aF5.6
aF7.5
aF5.7
aF5.5
aF9.0
aF6.4
aF7.9
aF5.5
aF7.5
aF7.1
aF6.7
aF7.8
aF6.9
aF5.9
aF5.9
aF8.8
aF5.6
aF9.6
aF8.8
aF8.5
aF7.2
aF8.9
aF9.4
aF9.2
aF8.4
aF6.7
aF9.5
aF9.3
aF7.3
aF8.0
aF8.5
aF5.5
aF8.5
aF8.6
aF7.6
aF6.3
aF9.9
aF9.3
aF5.6
aF9.4
aF8.7
aF6.3
aF6.1
aF9.1
aF8.0
aF9.3
aF9.2
aF8.5
aF9.5
aF8.0
aF9.1
aF9.1
aF5.0
aF9.9
aF5.5
aF7.8
aF9.9
aF9.6
aF9.4
aF9.1
aF9.6
aF6.5
aF10.0
aF5.2
aF5.3
aF8.2
aF6.1
aF9.3
aF9.6
aF9.4
aF9.2
aF6.2
aF6.7
aF7.8
aF7.7
aF7.6
aF9.1
aF6.2
aF9.1
aF8.6
aF6.0
aF8.2
aF5.3
aF7.4
aF7.3
aF9.1
aF7.4
aF7.0
aF9.9
aF6.3
aF6.4
aF7.7
aF5.7
aF8.3
aF8.0
aF9.3
aF8.5
aF6.7
aF5.3
aF7.5
aF8.3
aF7.8
aF8.9
aF5.7
aF5.6
aF5.3
aF9.3
aF9.7
aF9.5
aF9.1
aF6.0
aF8.8
aF5.1
aF7.5
aF9.8
aF5.3
aF9.4
aF8.6
aF8.8
aF7.9
aF10.0
aF5.1
aF9.0
aF8.9
aF8.3
aF5.6
aF8.3
aF5.1
aF5.3
aF7.8
aF9.9
aF8.0
aF6.6
aF7.9
aF6.4
aF6.8
aF7.3
aF7.8
aF7.4
aF7.9
aF6.7
aF5.4
aF8.6
aF8.1
aF6.3
aF7.2
aF6.2
aF6.8
aF6.7
aF7.8
aF5.4
aF6.2
aF9.0
aF8.6
aF6.8
aF8.7
aF6.8
aF6.5
aF9.3
aF7.4
aF9.7
aF5.8
aF7.5
aF6.0
aF5.6
aF6.6
aF6.1
aF9.0
aF5.7
aF6.3
aF5.2
aF8.7
aF7.5
aF6.4
aF7.1
aF8.4
aF7.0
aF6.5
aF6.4
aF7.3
aF9.3
aF7.3
aF5.3
aF7.4
aF5.4
aF7.6
aF6.5
aF9.0
aF9.6
aF7.1
aF6.9
aF8.2
aF5.7
aF8.6
assS'IndoorTemp'
p23
(dp24
g3
S'23.1'
p25
sg5
(lp26
F18.0
aF24.2
aF19.2
aF22.0
aF18.1
aF17.9
aF18.2
aF21.1
aF23.9
aF22.4
aF23.4
aF17.6
aF17.7
aF22.5
aF22.1
aF19.6
aF19.3
aF20.3
aF23.3
aF17.7
aF22.4
aF17.3
aF19.0
aF20.4
aF20.2
aF21.4
aF21.6
aF23.8
aF24.3
aF22.9
aF22.4
aF19.0
aF18.5
aF19.5
aF22.2
aF20.0
aF21.3
aF21.9
aF22.7
aF22.0
aF24.4
aF21.7
aF21.5
aF19.7
aF20.3
aF23.5
aF17.1
aF21.9
aF18.5
aF24.7
aF20.2
aF17.1
aF17.9
aF22.6
aF20.0
aF21.6
aF24.9
aF21.7
aF21.4
aF19.6
aF17.1
aF23.1
aF24.4
aF17.2
aF20.3
aF20.9
aF24.7
aF18.1
aF17.2
aF23.6
aF19.5
aF17.9
aF23.8
aF19.3
aF24.1
aF23.7
aF18.3
aF19.2
aF21.8
aF17.2
aF20.5
aF22.7
aF22.6
aF21.6
aF17.3
aF23.8
aF18.5
aF19.3
aF19.6
aF24.1
aF24.2
aF18.0
aF23.9
aF23.8
aF20.9
aF23.9
aF20.4
aF19.9
aF18.1
aF21.9
aF24.5
aF21.4
aF20.6
aF24.2
aF18.2
aF24.8
aF24.4
aF21.0
aF18.1
aF17.9
aF21.5
aF24.2
aF19.7
aF24.9
aF23.1
aF24.2
aF20.0
aF17.7
aF23.7
aF20.0
aF23.6
aF23.4
aF21.1
aF23.7
aF20.6
aF23.4
aF23.4
aF20.3
aF23.7
aF22.2
aF17.1
aF19.5
aF22.0
aF19.3
aF19.7
aF22.9
aF22.5
aF18.4
aF23.0
aF22.4
aF20.3
aF17.2
aF23.4
aF22.6
aF19.5
aF20.1
aF20.3
aF18.6
aF19.8
aF24.9
aF24.2
aF18.8
aF20.1
aF23.1
aF17.1
aF23.4
aF17.7
aF19.1
aF20.1
aF22.0
aF19.7
aF22.1
aF19.2
aF23.8
aF17.7
aF19.0
aF19.9
aF20.9
aF19.0
aF24.5
aF19.2
aF22.2
aF18.3
aF20.3
aF18.4
aF22.8
aF21.7
aF24.8
aF23.7
aF22.3
aF17.3
aF21.5
aF19.9
aF22.8
aF24.6
aF17.0
aF21.5
aF20.7
aF21.3
aF21.5
aF19.7
aF17.1
aF21.0
aF22.3
aF23.5
aF18.6
aF17.7
aF24.7
aF21.0
aF17.4
aF24.9
aF23.3
aF18.6
aF18.5
aF20.4
aF24.8
aF17.5
aF24.4
aF21.9
aF23.8
aF20.0
aF24.6
aF20.4
aF21.3
aF21.7
aF19.9
aF21.8
aF19.7
aF23.3
aF21.3
aF22.2
aF20.8
aF19.6
aF23.8
aF22.1
aF23.0
aF19.1
aF21.4
aF23.6
aF19.8
aF17.6
aF17.2
aF23.5
aF17.0
aF18.5
aF23.1
aF18.1
aF19.4
aF24.4
aF19.4
aF18.0
aF19.2
aF18.0
aF24.6
aF22.3
aF24.5
aF19.6
aF23.5
aF20.9
aF23.2
aF17.7
aF18.8
aF20.2
aF24.8
aF17.2
aF21.8
aF23.5
aF22.8
aF19.9
aF20.9
aF19.2
aF23.1
aF24.3
aF24.0
aF22.8
aF21.1
aF20.8
aF17.4
aF18.9
aF22.8
aF21.6
aF19.2
aF21.1
aF24.2
aF23.4
aF24.4
aF20.7
aF24.2
aF19.1
aF18.4
aF20.2
aF22.3
aF21.8
aF23.6
aF22.7
aF21.9
aF23.9
aF17.1
aF24.4
aF20.4
aF24.4
aF24.4
aF19.8
aF20.2
aF18.2
aF23.8
aF24.5
aF23.0
aF22.3
aF18.2
aF19.4
aF22.4
aF20.0
aF23.4
aF20.7
aF20.1
aF18.9
aF19.0
aF19.7
aF23.4
aF21.4
aF17.9
aF18.0
aF22.4
aF19.6
aF19.7
aF17.9
aF19.1
aF18.1
aF18.4
aF21.8
aF17.6
aF24.6
aF19.3
aF23.8
aF19.2
aF17.3
aF18.4
aF17.6
aF21.7
aF22.9
aF22.3
aF21.7
aF18.5
aF20.5
aF19.5
aF18.2
aF24.2
aF24.3
aF21.1
aF21.3
aF23.1
aF19.1
aF18.6
aF21.6
aF23.8
aF24.5
aF21.1
aF23.9
aF18.2
aF18.4
aF23.1
aF18.7
aF18.7
aF17.7
aF19.3
aF23.3
aF23.1
aF17.1
aF23.8
aF19.9
aF18.9
aF19.2
aF19.5
aF24.7
aF17.1
aF18.7
aF22.2
aF24.0
aF23.0
aF23.0
aF24.7
aF24.4
aF17.3
aF17.5
aF19.9
aF22.9
aF22.1
aF17.3
aF18.6
aF21.9
aF18.5
aF22.7
aF19.9
aF23.1
aF19.7
aF19.2
aF24.2
aF22.2
aF19.1
aF18.7
aF23.8
aF18.5
aF21.7
aF19.8
aF19.6
aF22.6
aF19.4
aF24.9
aF17.0
aF23.0
aF17.1
aF18.2
aF21.1
aF21.5
aF19.4
aF18.1
aF23.3
aF17.9
aF20.2
aF23.7
aF21.1
aF17.7
aF24.9
aF23.2
aF18.0
aF21.8
aF18.7
aF24.9
aF18.1
aF23.7
aF24.4
aF18.9
aF22.7
aF21.7
aF24.8
aF18.3
aF24.4
aF21.9
aF19.9
aF21.7
aF19.2
aF23.7
aF23.6
aF21.3
aF19.3
aF19.6
aF24.7
aF21.5
aF23.8
aF22.5
aF21.5
aF23.8
aF18.9
aF23.4
aF17.6
aF22.2
aF23.6
aF19.9
aF19.9
aF22.0
aF18.3
aF21.6
aF20.3
aF21.5
aF18.7
aF19.8
aF24.1
aF23.7
aF24.1
aF23.9
aF17.8
aF18.2
aF19.0
aF18.5
aF21.9
aF18.6
aF18.5
aF21.5
aF24.3
aF20.5
aF23.8
aF21.3
aF23.8
aF19.2
aF23.9
aF24.4
aF20.8
aF20.3
aF23.8
aF21.7
aF22.1
aF19.7
aF19.7
aF22.3
aF20.5
aF21.6
aF19.0
aF18.5
aF19.7
aF17.0
aF18.8
aF23.2
aF17.7
aF21.6
aF22.9
aF24.4
aF19.6
aF18.9
aF19.7
aF24.0
aF19.1
aF21.9
aF19.9
aF20.0
aF22.1
aF23.9
aF20.1
aF20.9
aF17.2
aF19.8
aF23.4
aF20.1
aF17.2
aF20.8
aF21.7
aF18.0
aF17.5
aF19.4
aF24.5
aF22.3
aF20.8
aF25.0
aF21.6
aF24.4
aF18.7
aF17.9
aF23.3
aF23.6
aF17.9
aF23.1
aF23.7
aF24.2
aF17.4
aF24.2
aF22.8
aF18.6
aF21.0
aF23.5
aF19.9
aF20.5
aF24.7
aF22.9
aF19.8
aF22.7
aF21.1
aF19.7
aF17.8
aF20.3
aF22.8
aF17.4
aF19.7
aF24.6
aF24.7
aF19.0
aF19.0
aF20.7
aF20.4
aF21.3
aF22.1
aF22.0
aF24.1
aF22.6
aF22.6
aF22.0
aF23.1
assS'FridgeTempLower'
p27
(dp28
g3
S'8.8'
p29
sg5
(lp30
F6.1
aF8.4
aF7.5
aF9.7
aF9.0
aF8.8
aF8.5
aF8.4
aF7.6
aF5.7
aF9.8
aF7.0
aF9.1
aF8.5
aF6.1
aF9.2
aF7.0
aF5.9
aF6.6
aF7.9
aF6.3
aF9.4
aF9.4
aF7.0
aF5.4
aF6.1
aF7.6
aF7.3
aF7.5
aF5.6
aF6.1
aF5.4
aF5.3
aF6.2
aF8.8
aF5.5
aF8.4
aF6.1
aF5.2
aF6.5
aF9.1
aF6.8
aF8.2
aF8.4
aF6.1
aF6.4
aF6.5
aF8.1
aF5.5
aF6.6
aF6.8
aF5.9
aF8.2
aF7.5
aF8.0
aF8.0
aF6.2
aF5.8
aF8.1
aF8.8
aF8.4
aF6.4
aF6.8
aF8.0
aF7.0
aF6.0
aF9.6
aF5.7
aF7.7
aF5.9
aF9.1
aF7.2
aF7.1
aF7.0
aF8.3
aF9.5
aF5.8
aF10.0
aF5.5
aF9.3
aF8.8
aF7.0
aF7.5
aF7.4
aF7.4
aF7.8
aF8.4
aF8.1
aF6.7
aF6.6
aF6.0
aF8.8
aF9.1
aF7.9
aF5.6
aF5.4
aF8.3
aF9.6
aF6.6
aF8.5
aF9.0
aF7.2
aF8.8
aF5.6
aF8.8
aF5.0
aF5.6
aF7.1
aF7.7
aF7.3
aF6.6
aF9.8
aF9.2
aF5.8
aF7.3
aF9.7
aF9.7
aF7.7
aF6.4
aF8.0
aF9.1
aF9.3
aF6.5
aF7.0
aF8.4
aF6.5
aF7.9
aF5.8
aF7.0
aF7.5
aF6.7
aF9.0
aF5.9
aF7.2
aF9.2
aF6.6
aF6.3
aF6.6
aF5.2
aF6.2
aF7.0
aF9.9
aF7.9
aF7.9
aF8.6
aF8.5
aF8.1
aF8.2
aF6.5
aF6.7
aF6.9
aF8.7
aF7.5
aF5.6
aF5.9
aF9.5
aF6.1
aF8.9
aF5.1
aF7.4
aF5.0
aF6.8
aF7.5
aF6.2
aF6.6
aF7.2
aF8.2
aF6.1
aF7.9
aF6.0
aF6.6
aF9.9
aF9.7
aF8.6
aF9.5
aF7.9
aF9.1
aF8.2
aF8.4
aF8.8
aF5.9
aF6.4
aF8.5
aF9.5
aF5.4
aF6.8
aF5.0
aF7.0
aF8.5
aF8.6
aF5.6
aF9.0
aF7.9
aF9.9
aF9.9
aF8.7
aF5.6
aF5.8
aF6.0
aF5.1
aF8.2
aF7.4
aF8.1
aF6.4
aF8.4
aF8.2
aF9.3
aF9.1
aF8.7
aF7.1
aF5.3
aF6.6
aF9.3
aF8.3
aF9.6
aF6.7
aF6.3
aF5.4
aF5.7
aF9.4
aF8.5
aF5.5
aF7.9
aF7.9
aF8.4
aF8.2
aF6.1
aF5.0
aF8.8
aF6.8
aF9.0
aF8.0
aF8.0
aF9.9
aF6.8
aF7.6
aF5.4
aF6.2
aF8.6
aF6.3
aF9.7
aF9.7
aF6.6
aF6.0
aF8.5
aF5.5
aF9.2
aF7.5
aF7.8
aF7.2
aF8.4
aF9.6
aF8.7
aF6.5
aF6.3
aF8.6
aF6.6
aF5.6
aF6.0
aF6.3
aF6.3
aF6.4
aF8.5
aF8.7
aF6.9
aF5.5
aF9.8
aF6.4
aF6.9
aF7.4
aF6.6
aF9.3
aF5.8
aF8.2
aF5.0
aF7.6
aF9.0
aF9.4
aF10.0
aF8.9
aF5.4
aF6.4
aF5.6
aF7.1
aF8.0
aF8.5
aF7.7
aF9.3
aF7.0
aF6.5
aF6.6
aF7.4
aF7.7
aF6.7
aF7.6
aF8.1
aF8.9
aF7.1
aF7.5
aF9.6
aF6.9
aF9.2
aF8.6
aF8.9
aF9.8
aF6.3
aF6.6
aF8.9
aF9.2
aF7.3
aF6.8
aF8.6
aF8.2
aF9.9
aF7.5
aF8.9
aF5.5
aF5.4
aF9.0
aF8.4
aF6.6
aF7.9
aF7.0
aF5.5
aF6.8
aF8.4
aF5.8
aF8.6
aF7.7
aF8.7
aF9.4
aF6.2
aF7.6
aF7.0
aF9.7
aF5.9
aF9.0
aF9.2
aF5.6
aF6.4
aF8.3
aF7.7
aF8.2
aF6.2
aF5.9
aF6.3
aF9.9
aF9.3
aF6.3
aF7.1
aF9.3
aF7.8
aF6.5
aF9.7
aF8.3
aF9.4
aF9.6
aF5.5
aF8.5
aF5.3
aF9.2
aF8.5
aF6.8
aF7.7
aF7.7
aF5.6
aF7.4
aF8.3
aF10.0
aF5.8
aF6.6
aF7.2
aF8.6
aF6.9
aF8.6
aF5.9
aF9.9
aF6.4
aF6.3
aF6.1
aF6.1
aF9.1
aF6.3
aF7.6
aF8.0
aF8.9
aF5.7
aF9.9
aF9.7
aF7.9
aF5.5
aF7.3
aF6.7
aF9.6
aF7.0
aF7.4
aF9.3
aF6.8
aF6.6
aF8.7
aF6.3
aF5.3
aF8.4
aF5.6
aF6.7
aF9.3
aF5.1
aF5.6
aF8.8
aF7.1
aF5.3
aF5.5
aF8.9
aF6.5
aF9.3
aF5.7
aF7.8
aF6.8
aF6.4
aF6.8
aF7.6
aF5.0
aF5.7
aF8.5
aF5.1
aF6.0
aF7.2
aF6.8
aF8.9
aF6.9
aF6.2
aF8.3
aF5.3
aF9.6
aF9.1
aF7.7
aF5.6
aF8.2
aF5.1
aF5.6
aF5.0
aF7.2
aF9.3
aF8.4
aF9.0
aF5.3
aF9.8
aF5.5
aF9.9
aF7.5
aF9.7
aF8.6
aF7.7
aF9.5
aF9.4
aF5.4
aF5.5
aF9.1
aF8.0
aF5.7
aF9.3
aF7.5
aF5.4
aF6.8
aF5.3
aF8.4
aF6.4
aF8.3
aF7.3
aF9.9
aF5.1
aF6.8
aF5.3
aF6.1
aF5.3
aF8.4
aF6.9
aF7.6
aF5.5
aF7.9
aF8.8
aF6.0
aF9.4
aF8.5
aF7.0
aF7.8
aF7.3
aF9.5
aF7.3
aF9.2
aF8.0
aF6.2
aF8.3
aF9.7
aF8.8
aF8.6
aF8.6
aF7.8
aF8.2
aF8.8
aF9.2
aF6.3
aF6.4
aF6.8
aF10.0
aF7.3
aF8.6
aF9.1
aF5.0
aF9.7
aF6.9
aF7.4
aF5.9
aF6.9
aF8.2
aF5.2
aF6.5
aF7.4
aF6.5
aF7.8
aF8.6
aF9.4
aF9.9
aF9.0
aF9.3
aF9.8
aF7.8
aF9.2
aF6.7
aF6.1
aF6.9
aF5.8
aF8.7
aF6.4
aF7.4
aF8.9
aF6.8
aF8.1
aF8.1
aF6.3
aF7.8
aF6.7
aF6.5
aF5.3
aF5.6
aF8.8
aF7.3
aF7.3
aF6.6
aF6.8
aF9.1
aF9.0
aF5.1
aF5.6
aF9.4
aF9.1
aF5.5
aF8.2
aF6.9
aF6.7
aF10.0
aF5.3
aF7.1
aF5.6
aF8.3
aF8.8
assS'OutdoorBar'
p31
(dp32
g3
S'91.7'
p33
sg5
(lp34
F90.3
aF99.4
aF101.0
aF100.4
aF90.3
aF98.0
aF95.4
aF98.4
aF101.4
aF95.8
aF99.1
aF91.5
aF100.6
aF94.2
aF98.1
aF94.5
aF95.6
aF101.7
aF92.1
aF100.4
aF94.6
aF101.6
aF92.9
aF97.1
aF95.3
aF95.9
aF97.1
aF101.7
aF94.4
aF96.8
aF99.4
aF98.3
aF95.1
aF95.3
aF101.4
aF97.4
aF96.7
aF96.0
aF94.6
aF98.1
aF91.2
aF92.0
aF101.2
aF97.9
aF96.1
aF100.1
aF101.1
aF99.8
aF91.6
aF90.8
aF96.4
aF95.4
aF101.2
aF95.6
aF95.1
aF94.2
aF97.6
aF94.6
aF93.9
aF99.1
aF98.9
aF95.3
aF94.7
aF92.7
aF96.7
aF93.4
aF101.6
aF95.6
aF95.6
aF90.6
aF98.8
aF99.7
aF90.9
aF94.8
aF94.3
aF98.8
aF97.5
aF101.4
aF92.4
aF100.3
aF92.4
aF95.4
aF101.2
aF95.1
aF97.4
aF91.3
aF96.1
aF93.8
aF98.3
aF92.2
aF96.1
aF100.6
aF96.6
aF94.1
aF90.7
aF92.8
aF96.8
aF97.9
aF92.5
aF99.5
aF90.7
aF98.8
aF98.7
aF98.5
aF101.6
aF95.5
aF90.5
aF98.3
aF93.6
aF100.0
aF91.9
aF97.6
aF101.2
aF96.6
aF99.8
aF99.4
aF98.4
aF101.4
aF101.7
aF94.9
aF100.6
aF97.9
aF98.8
aF99.7
aF90.3
aF101.2
aF99.4
aF98.7
aF90.0
aF98.3
aF100.2
aF95.7
aF91.0
aF97.6
aF96.4
aF97.7
aF100.1
aF98.8
aF101.1
aF100.3
aF91.6
aF93.7
aF93.1
aF90.9
aF101.0
aF90.5
aF98.3
aF97.6
aF93.4
aF94.5
aF101.3
aF91.9
aF99.4
aF96.8
aF90.0
aF93.1
aF93.3
aF96.9
aF95.6
aF94.9
aF101.7
aF98.7
aF97.5
aF92.4
aF99.0
aF97.8
aF97.1
aF93.0
aF99.9
aF95.0
aF97.5
aF100.2
aF100.4
aF96.2
aF94.4
aF100.5
aF95.9
aF97.2
aF94.8
aF97.8
aF96.8
aF91.2
aF92.9
aF91.1
aF99.7
aF90.9
aF95.0
aF92.9
aF100.6
aF93.8
aF95.0
aF98.2
aF91.2
aF91.3
aF90.1
aF95.7
aF92.8
aF95.8
aF98.6
aF98.8
aF90.9
aF93.5
aF94.3
aF97.4
aF94.7
aF94.8
aF96.2
aF92.7
aF96.1
aF92.7
aF97.8
aF99.3
aF97.2
aF101.0
aF97.5
aF101.4
aF100.7
aF94.8
aF101.0
aF92.2
aF95.2
aF93.1
aF99.4
aF96.9
aF92.7
aF100.6
aF93.4
aF97.2
aF101.3
aF95.1
aF96.4
aF94.9
aF93.4
aF99.9
aF95.2
aF96.0
aF101.9
aF98.1
aF92.0
aF91.8
aF98.5
aF95.9
aF95.5
aF100.0
aF98.9
aF100.7
aF90.1
aF93.2
aF94.1
aF91.0
aF90.8
aF90.8
aF94.8
aF90.7
aF101.8
aF96.1
aF96.8
aF98.8
aF90.3
aF96.3
aF91.4
aF90.8
aF90.2
aF94.6
aF97.4
aF93.2
aF90.4
aF97.6
aF102.0
aF92.0
aF98.0
aF95.1
aF93.7
aF94.2
aF101.0
aF101.4
aF90.6
aF100.8
aF94.1
aF93.0
aF99.5
aF99.6
aF95.4
aF98.6
aF96.8
aF101.3
aF96.4
aF90.6
aF98.0
aF99.4
aF91.6
aF97.9
aF92.3
aF92.4
aF101.8
aF90.8
aF101.7
aF100.1
aF92.4
aF100.7
aF99.6
aF100.5
aF95.8
aF98.4
aF97.6
aF92.4
aF101.6
aF93.6
aF94.9
aF101.1
aF92.7
aF95.1
aF92.6
aF95.9
aF99.5
aF91.6
aF92.3
aF94.4
aF96.4
aF100.8
aF99.4
aF100.5
aF94.5
aF94.1
aF90.6
aF97.4
aF99.0
aF98.9
aF90.6
aF100.8
aF96.4
aF96.9
aF96.1
aF100.3
aF97.0
aF99.5
aF92.8
aF95.1
aF90.5
aF92.0
aF95.6
aF97.0
aF94.5
aF98.3
aF92.9
aF99.5
aF90.1
aF91.6
aF99.3
aF95.2
aF101.4
aF95.1
aF95.6
aF99.6
aF93.6
aF93.7
aF97.6
aF92.6
aF91.5
aF90.7
aF98.1
aF101.6
aF99.0
aF91.2
aF99.0
aF97.0
aF100.0
aF93.2
aF99.2
aF96.6
aF97.8
aF96.9
aF94.2
aF93.2
aF93.8
aF95.8
aF92.6
aF97.6
aF92.3
aF100.9
aF90.8
aF92.6
aF90.9
aF91.7
aF99.9
aF95.3
aF90.8
aF94.8
aF97.0
aF98.5
aF92.2
aF92.4
aF97.8
aF96.5
aF93.2
aF91.5
aF93.6
aF91.5
aF95.3
aF92.0
aF93.2
aF91.1
aF96.2
aF95.6
aF93.3
aF90.2
aF100.5
aF91.0
aF101.8
aF91.1
aF94.6
aF94.8
aF97.8
aF97.2
aF90.0
aF98.3
aF91.6
aF91.5
aF94.5
aF101.0
aF96.0
aF90.5
aF95.5
aF90.7
aF91.7
aF97.1
aF98.9
aF100.2
aF93.5
aF100.2
aF92.7
aF96.6
aF92.3
aF90.9
aF96.2
aF99.1
aF97.5
aF93.7
aF98.7
aF101.8
aF97.9
aF90.6
aF94.4
aF98.3
aF92.5
aF94.5
aF91.7
aF92.6
aF92.2
aF90.0
aF98.1
aF97.3
aF97.9
aF96.9
aF95.9
aF92.3
aF97.4
aF92.1
aF101.3
aF90.1
aF91.5
aF95.6
aF91.0
aF95.0
aF96.1
aF90.5
aF100.1
aF91.1
aF95.9
aF93.5
aF98.4
aF99.6
aF98.9
aF92.4
aF91.5
aF91.6
aF90.3
aF96.2
aF101.3
aF95.5
aF97.4
aF91.2
aF94.1
aF98.1
aF91.2
aF90.5
aF92.7
aF92.0
aF93.0
aF90.2
aF98.7
aF100.2
aF100.6
aF98.5
aF95.3
aF95.7
aF94.4
aF90.5
aF95.7
aF98.2
aF92.7
aF102.0
aF94.1
aF92.9
aF99.6
aF94.7
aF90.1
aF101.0
aF95.2
aF100.7
aF90.7
aF100.4
aF93.6
aF98.6
aF93.8
aF97.6
aF92.5
aF99.3
aF101.0
aF100.1
aF96.8
aF100.4
aF101.7
aF91.2
aF94.4
aF94.3
aF94.2
aF94.0
aF97.1
aF92.9
aF95.0
aF98.7
aF90.4
aF99.0
aF90.1
aF92.3
aF101.0
aF94.8
aF94.4
aF93.6
aF101.4
aF93.6
aF96.7
aF94.4
aF97.7
aF93.1
aF95.4
aF93.0
aF92.3
aF97.6
aF90.5
aF92.4
aF100.1
aF95.3
aF93.3
aF101.8
aF93.9
aF90.8
aF95.3
aF101.5
aF101.1
aF94.6
aF100.9
aF97.1
aF100.6
aF91.7
ass.